; Function Attrs: nounwind sspstrong uwtable
define dso_local void @tcg_gen_ctzi_i64(ptr noundef %0, ptr noundef %1, i64 noundef %2) local_unnamed_addr #2 {
  %4 = tail call ptr @tcg_constant_i64(i64 noundef %2) #6
  %5 = tail call align 8 ptr @llvm.threadlocal.address.p0(ptr align 8 @tcg_ctx)
  %6 = load ptr, ptr %5, align 8
  %7 = ptrtoint ptr %0 to i64
  %8 = getelementptr inbounds nuw i8, ptr %6, i64 %7
  %9 = ptrtoint ptr %8 to i64
  %10 = ptrtoint ptr %1 to i64
  %11 = getelementptr inbounds nuw i8, ptr %6, i64 %10
  %12 = ptrtoint ptr %11 to i64
  %13 = ptrtoint ptr %4 to i64
  %14 = getelementptr inbounds nuw i8, ptr %6, i64 %13
  %15 = ptrtoint ptr %14 to i64
  %16 = tail call ptr @tcg_gen_op3(i32 noundef 121, i32 noundef 1, i64 noundef %9, i64 noundef %12, i64 noundef %15)
  ret void
}